; Function Attrs: nounwind uwtable
define dso_local noundef ptr @xmalloc(i64 noundef %0) local_unnamed_addr #0 {
  %2 = load i64, ptr @memory_limit_check.limit, align 8, !tbaa !4
  %.not.i.i = icmp eq i64 %2, 0
  br i1 %.not.i.i, label %3, label %5

3:                                                ; preds = %1
  %4 = tail call i64 @git_env_ulong(ptr noundef nonnull @.str.31, i64 noundef 0) #20
  %.not7.i.i = icmp eq i64 %4, 0
  %spec.store.select.i.i = select i1 %.not7.i.i, i64 -1, i64 %4
  store i64 %spec.store.select.i.i, ptr @memory_limit_check.limit, align 8
  br label %5

5:                                                ; preds = %3, %1
  %6 = phi i64 [ %spec.store.select.i.i, %3 ], [ %2, %1 ]
  %7 = icmp ugt i64 %0, %6
  br i1 %7, label %8, label %9

8:                                                ; preds = %5
  tail call void (ptr, ...) @die(ptr noundef nonnull @.str.32, i64 noundef %0, i64 noundef %6) #21
  unreachable

9:                                                ; preds = %5
  %10 = tail call noalias ptr @malloc(i64 noundef %0) #22
  %11 = icmp ne ptr %10, null
  %12 = icmp ne i64 %0, 0
  %or.cond.i = or i1 %12, %11
  br i1 %or.cond.i, label %15, label %13

13:                                               ; preds = %9
  %14 = tail call noalias dereferenceable_or_null(1) ptr @malloc(i64 noundef 1) #22
  br label %15

15:                                               ; preds = %13, %9
  %.0.i = phi ptr [ %10, %9 ], [ %14, %13 ]
  %.not12.i = icmp eq ptr %.0.i, null
  br i1 %.not12.i, label %16, label %do_xmalloc.exit

16:                                               ; preds = %15
  tail call void (ptr, ...) @die(ptr noundef nonnull @.str.29, i64 noundef %0) #21
  unreachable

do_xmalloc.exit:                                  ; preds = %15
  ret ptr %.0.i
}